target datalayout = "e-m:e-p270:32:32-p271:32:32-p272:64:64-i64:64-i128:128-f80:128-n8:16:32:64-S128"
target triple = "x86_64-pc-linux-gnu"

%struct.AVFilterContext = type { ptr, ptr, ptr, ptr, ptr, i32, ptr, ptr, i32, ptr, ptr, i32, i32, ptr, ptr, ptr, ptr, i32, ptr, i32, i32 }
%struct.XFadeContext = type { ptr, i32, i64, i64, ptr, i32, i32, i32, i64, i64, i64, i64, i32, [2 x i32], [2 x ptr], i32, [4 x i16], [4 x i16], ptr, ptr }
%struct.AVRational = type { i32, i32 }
%struct.AVFrame = type { [8 x ptr], [8 x i32], ptr, i32, i32, i32, i32, i32, %struct.AVRational, i64, i64, %struct.AVRational, i32, ptr, i32, i32, [8 x ptr], ptr, i32, ptr, i32, i32, i32, i32, i32, i32, i32, i64, ptr, i32, ptr, ptr, i64, i64, i64, i64, ptr, %struct.AVChannelLayout, i64 }
%struct.AVChannelLayout = type { i32, i32, %union.anon.1, ptr }
%union.anon.1 = type { i64 }

; Function Attrs: alwaysinline nounwind willreturn memory(none) uwtable
define internal float @av_clipf_c(float noundef %0, float noundef %1, float noundef %2) #8 {
  %4 = alloca float, align 4
  %5 = alloca float, align 4
  %6 = alloca float, align 4
  store float %0, ptr %4, align 4, !tbaa !90
  store float %1, ptr %5, align 4, !tbaa !90
  store float %2, ptr %6, align 4, !tbaa !90
  %7 = load float, ptr %4, align 4, !tbaa !90
  %8 = load float, ptr %5, align 4, !tbaa !90
  %9 = fcmp nsz ogt float %7, %8
  br i1 %9, label %10, label %12

10:                                               ; preds = %3
  %11 = load float, ptr %4, align 4, !tbaa !90
  br label %14

12:                                               ; preds = %3
  %13 = load float, ptr %5, align 4, !tbaa !90
  br label %14

14:                                               ; preds = %12, %10
  %15 = phi nsz float [ %11, %10 ], [ %13, %12 ]
  %16 = load float, ptr %6, align 4, !tbaa !90
  %17 = fcmp nsz ogt float %15, %16
  br i1 %17, label %18, label %20

18:                                               ; preds = %14
  %19 = load float, ptr %6, align 4, !tbaa !90
  br label %30

20:                                               ; preds = %14
  %21 = load float, ptr %4, align 4, !tbaa !90
  %22 = load float, ptr %5, align 4, !tbaa !90
  %23 = fcmp nsz ogt float %21, %22
  br i1 %23, label %24, label %26

24:                                               ; preds = %20
  %25 = load float, ptr %4, align 4, !tbaa !90
  br label %28

26:                                               ; preds = %20
  %27 = load float, ptr %5, align 4, !tbaa !90
  br label %28

28:                                               ; preds = %26, %24
  %29 = phi nsz float [ %25, %24 ], [ %27, %26 ]
  br label %30

30:                                               ; preds = %28, %18
  %31 = phi nsz float [ %19, %18 ], [ %29, %28 ]
  ret float %31
}

; Function Attrs: inlinehint nounwind uwtable
define internal float @mix(float noundef %0, float noundef %1, float noundef %2) #4 {
  %4 = alloca float, align 4
  %5 = alloca float, align 4
  %6 = alloca float, align 4
  store float %0, ptr %4, align 4, !tbaa !90
  store float %1, ptr %5, align 4, !tbaa !90
  store float %2, ptr %6, align 4, !tbaa !90
  %7 = load float, ptr %4, align 4, !tbaa !90
  %8 = load float, ptr %6, align 4, !tbaa !90
  %9 = load float, ptr %5, align 4, !tbaa !90
  %10 = load float, ptr %6, align 4, !tbaa !90
  %11 = fsub nsz float 1.000000e+00, %10
  %12 = fmul nsz float %9, %11
  %13 = call nsz float @llvm.fmuladd.f32(float %7, float %8, float %12)
  ret float %13
}

; Function Attrs: inlinehint nounwind uwtable
define internal float @smoothstep(float noundef %0, float noundef %1, float noundef %2) #4 {
  %4 = alloca float, align 4
  %5 = alloca float, align 4
  %6 = alloca float, align 4
  %7 = alloca float, align 4
  store float %0, ptr %4, align 4, !tbaa !90
  store float %1, ptr %5, align 4, !tbaa !90
  store float %2, ptr %6, align 4, !tbaa !90
  call void @llvm.lifetime.start.p0(i64 4, ptr %7) #10
  %8 = load float, ptr %6, align 4, !tbaa !90
  %9 = load float, ptr %4, align 4, !tbaa !90
  %10 = fsub nsz float %8, %9
  %11 = load float, ptr %5, align 4, !tbaa !90
  %12 = load float, ptr %4, align 4, !tbaa !90
  %13 = fsub nsz float %11, %12
  %14 = fdiv nsz float %10, %13
  %15 = call nsz float @av_clipf_c(float noundef %14, float noundef 0.000000e+00, float noundef 1.000000e+00) #11
  store float %15, ptr %7, align 4, !tbaa !90
  %16 = load float, ptr %7, align 4, !tbaa !90
  %17 = load float, ptr %7, align 4, !tbaa !90
  %18 = fmul nsz float %16, %17
  %19 = load float, ptr %7, align 4, !tbaa !90
  %20 = call nsz float @llvm.fmuladd.f32(float -2.000000e+00, float %19, float 3.000000e+00)
  %21 = fmul nsz float %18, %20
  call void @llvm.lifetime.end.p0(i64 4, ptr %7) #10
  ret float %21
}

; Function Attrs: nounwind uwtable
define internal float @frand(i32 noundef %0, i32 noundef %1) #1 {
  %3 = alloca i32, align 4
  %4 = alloca i32, align 4
  %5 = alloca float, align 4
  store i32 %0, ptr %3, align 4, !tbaa !32
  store i32 %1, ptr %4, align 4, !tbaa !32
  call void @llvm.lifetime.start.p0(i64 4, ptr %5) #10
  %6 = load i32, ptr %3, align 4, !tbaa !32
  %7 = sitofp i32 %6 to float
  %8 = load i32, ptr %4, align 4, !tbaa !32
  %9 = sitofp i32 %8 to float
  %10 = fmul nsz float %9, 0x40538EE980000000
  %11 = call nsz float @llvm.fmuladd.f32(float %7, float 0x4029FAC720000000, float %10)
  %12 = call nsz float @llvm.sin.f32(float %11)
  %13 = fmul nsz float %12, 0x40E55DD180000000
  store float %13, ptr %5, align 4, !tbaa !90
  %14 = load float, ptr %5, align 4, !tbaa !90
  %15 = load float, ptr %5, align 4, !tbaa !90
  %16 = call nsz float @llvm.floor.f32(float %15)
  %17 = fsub nsz float %14, %16
  call void @llvm.lifetime.end.p0(i64 4, ptr %5) #10
  ret float %17
}

; Function Attrs: nounwind uwtable
define internal void @vdwind8_transition(ptr noundef %0, ptr noundef %1, ptr noundef %2, ptr noundef %3, float noundef %4, i32 noundef %5, i32 noundef %6, i32 noundef %7) #1 {
  %9 = alloca ptr, align 8
  %10 = alloca ptr, align 8
  %11 = alloca ptr, align 8
  %12 = alloca ptr, align 8
  %13 = alloca float, align 4
  %14 = alloca i32, align 4
  %15 = alloca i32, align 4
  %16 = alloca i32, align 4
  %17 = alloca ptr, align 8
  %18 = alloca i32, align 4
  %19 = alloca i32, align 4
  %20 = alloca i32, align 4
  %21 = alloca float, align 4
  %22 = alloca i32, align 4
  %23 = alloca float, align 4
  %24 = alloca i32, align 4
  %25 = alloca ptr, align 8
  %26 = alloca ptr, align 8
  %27 = alloca ptr, align 8
  store ptr %0, ptr %9, align 8, !tbaa !4
  store ptr %1, ptr %10, align 8, !tbaa !36
  store ptr %2, ptr %11, align 8, !tbaa !36
  store ptr %3, ptr %12, align 8, !tbaa !36
  store float %4, ptr %13, align 4, !tbaa !90
  store i32 %5, ptr %14, align 4, !tbaa !32
  store i32 %6, ptr %15, align 4, !tbaa !32
  store i32 %7, ptr %16, align 4, !tbaa !32
  call void @llvm.lifetime.start.p0(i64 8, ptr %17) #10
  %28 = load ptr, ptr %9, align 8, !tbaa !4
  %29 = getelementptr inbounds nuw %struct.AVFilterContext, ptr %28, i32 0, i32 9
  %30 = load ptr, ptr %29, align 8, !tbaa !9
  store ptr %30, ptr %17, align 8, !tbaa !22
  call void @llvm.lifetime.start.p0(i64 4, ptr %18) #10
  %31 = load ptr, ptr %12, align 8, !tbaa !36
  %32 = getelementptr inbounds nuw %struct.AVFrame, ptr %31, i32 0, i32 3
  %33 = load i32, ptr %32, align 8, !tbaa !92
  store i32 %33, ptr %18, align 4, !tbaa !32
  call void @llvm.lifetime.start.p0(i64 4, ptr %19) #10
  %34 = load i32, ptr %14, align 4, !tbaa !32
  store i32 %34, ptr %19, align 4, !tbaa !32
  br label %35

35:                                               ; preds = %147, %8
  %36 = load i32, ptr %19, align 4, !tbaa !32
  %37 = load i32, ptr %15, align 4, !tbaa !32
  %38 = icmp slt i32 %36, %37
  br i1 %38, label %40, label %39

39:                                               ; preds = %35
  store i32 2, ptr %20, align 4
  call void @llvm.lifetime.end.p0(i64 4, ptr %19) #10
  br label %150

40:                                               ; preds = %35
  call void @llvm.lifetime.start.p0(i64 4, ptr %21) #10
  %41 = load i32, ptr %19, align 4, !tbaa !32
  %42 = sitofp i32 %41 to float
  %43 = load ptr, ptr %12, align 8, !tbaa !36
  %44 = getelementptr inbounds nuw %struct.AVFrame, ptr %43, i32 0, i32 4
  %45 = load i32, ptr %44, align 4, !tbaa !95
  %46 = sitofp i32 %45 to float
  %47 = fdiv nsz float %42, %46
  store float %47, ptr %21, align 4, !tbaa !90
  call void @llvm.lifetime.start.p0(i64 4, ptr %22) #10
  store i32 0, ptr %22, align 4, !tbaa !32
  br label %48

48:                                               ; preds = %143, %40
  %49 = load i32, ptr %22, align 4, !tbaa !32
  %50 = load i32, ptr %18, align 4, !tbaa !32
  %51 = icmp slt i32 %49, %50
  br i1 %51, label %53, label %52

52:                                               ; preds = %48
  store i32 5, ptr %20, align 4
  call void @llvm.lifetime.end.p0(i64 4, ptr %22) #10
  br label %146

53:                                               ; preds = %48
  call void @llvm.lifetime.start.p0(i64 4, ptr %23) #10
  %54 = load i32, ptr %22, align 4, !tbaa !32
  %55 = call nsz float @frand(i32 noundef %54, i32 noundef 0)
  store float %55, ptr %23, align 4, !tbaa !90
  call void @llvm.lifetime.start.p0(i64 4, ptr %24) #10
  store i32 0, ptr %24, align 4, !tbaa !32
  br label %56

56:                                               ; preds = %139, %53
  %57 = load i32, ptr %24, align 4, !tbaa !32
  %58 = load ptr, ptr %17, align 8, !tbaa !22
  %59 = getelementptr inbounds nuw %struct.XFadeContext, ptr %58, i32 0, i32 5
  %60 = load i32, ptr %59, align 8, !tbaa !82
  %61 = icmp slt i32 %57, %60
  br i1 %61, label %63, label %62

62:                                               ; preds = %56
  store i32 8, ptr %20, align 4
  call void @llvm.lifetime.end.p0(i64 4, ptr %24) #10
  br label %142

63:                                               ; preds = %56
  call void @llvm.lifetime.start.p0(i64 8, ptr %25) #10
  %64 = load ptr, ptr %10, align 8, !tbaa !36
  %65 = getelementptr inbounds nuw %struct.AVFrame, ptr %64, i32 0, i32 0
  %66 = load i32, ptr %24, align 4, !tbaa !32
  %67 = sext i32 %66 to i64
  %68 = getelementptr inbounds [8 x ptr], ptr %65, i64 0, i64 %67
  %69 = load ptr, ptr %68, align 8, !tbaa !96
  %70 = load i32, ptr %19, align 4, !tbaa !32
  %71 = load ptr, ptr %10, align 8, !tbaa !36
  %72 = getelementptr inbounds nuw %struct.AVFrame, ptr %71, i32 0, i32 1
  %73 = load i32, ptr %24, align 4, !tbaa !32
  %74 = sext i32 %73 to i64
  %75 = getelementptr inbounds [8 x i32], ptr %72, i64 0, i64 %74
  %76 = load i32, ptr %75, align 4, !tbaa !32
  %77 = mul nsw i32 %70, %76
  %78 = sext i32 %77 to i64
  %79 = getelementptr inbounds i8, ptr %69, i64 %78
  store ptr %79, ptr %25, align 8, !tbaa !96
  call void @llvm.lifetime.start.p0(i64 8, ptr %26) #10
  %80 = load ptr, ptr %11, align 8, !tbaa !36
  %81 = getelementptr inbounds nuw %struct.AVFrame, ptr %80, i32 0, i32 0
  %82 = load i32, ptr %24, align 4, !tbaa !32
  %83 = sext i32 %82 to i64
  %84 = getelementptr inbounds [8 x ptr], ptr %81, i64 0, i64 %83
  %85 = load ptr, ptr %84, align 8, !tbaa !96
  %86 = load i32, ptr %19, align 4, !tbaa !32
  %87 = load ptr, ptr %11, align 8, !tbaa !36
  %88 = getelementptr inbounds nuw %struct.AVFrame, ptr %87, i32 0, i32 1
  %89 = load i32, ptr %24, align 4, !tbaa !32
  %90 = sext i32 %89 to i64
  %91 = getelementptr inbounds [8 x i32], ptr %88, i64 0, i64 %90
  %92 = load i32, ptr %91, align 4, !tbaa !32
  %93 = mul nsw i32 %86, %92
  %94 = sext i32 %93 to i64
  %95 = getelementptr inbounds i8, ptr %85, i64 %94
  store ptr %95, ptr %26, align 8, !tbaa !96
  call void @llvm.lifetime.start.p0(i64 8, ptr %27) #10
  %96 = load ptr, ptr %12, align 8, !tbaa !36
  %97 = getelementptr inbounds nuw %struct.AVFrame, ptr %96, i32 0, i32 0
  %98 = load i32, ptr %24, align 4, !tbaa !32
  %99 = sext i32 %98 to i64
  %100 = getelementptr inbounds [8 x ptr], ptr %97, i64 0, i64 %99
  %101 = load ptr, ptr %100, align 8, !tbaa !96
  %102 = load i32, ptr %19, align 4, !tbaa !32
  %103 = load ptr, ptr %12, align 8, !tbaa !36
  %104 = getelementptr inbounds nuw %struct.AVFrame, ptr %103, i32 0, i32 1
  %105 = load i32, ptr %24, align 4, !tbaa !32
  %106 = sext i32 %105 to i64
  %107 = getelementptr inbounds [8 x i32], ptr %104, i64 0, i64 %106
  %108 = load i32, ptr %107, align 4, !tbaa !32
  %109 = mul nsw i32 %102, %108
  %110 = sext i32 %109 to i64
  %111 = getelementptr inbounds i8, ptr %101, i64 %110
  store ptr %111, ptr %27, align 8, !tbaa !96
  %112 = load ptr, ptr %26, align 8, !tbaa !96
  %113 = load i32, ptr %22, align 4, !tbaa !32
  %114 = sext i32 %113 to i64
  %115 = getelementptr inbounds i8, ptr %112, i64 %114
  %116 = load i8, ptr %115, align 1, !tbaa !97
  %117 = uitofp i8 %116 to float
  %118 = load ptr, ptr %25, align 8, !tbaa !96
  %119 = load i32, ptr %22, align 4, !tbaa !32
  %120 = sext i32 %119 to i64
  %121 = getelementptr inbounds i8, ptr %118, i64 %120
  %122 = load i8, ptr %121, align 1, !tbaa !97
  %123 = uitofp i8 %122 to float
  %124 = load float, ptr %21, align 4, !tbaa !90
  %125 = load float, ptr %23, align 4, !tbaa !90
  %126 = fmul nsz float 0x3FC99999A0000000, %125
  %127 = call nsz float @llvm.fmuladd.f32(float %124, float 0x3FE99999A0000000, float %126)
  %128 = load float, ptr %13, align 4, !tbaa !90
  %129 = fsub nsz float 1.000000e+00, %128
  %130 = fneg nsz float %129
  %131 = call nsz float @llvm.fmuladd.f32(float %130, float 0x3FF3333340000000, float %127)
  %132 = call nsz float @smoothstep(float noundef 0.000000e+00, float noundef 0xBFC99999A0000000, float noundef %131)
  %133 = call nsz float @mix(float noundef %117, float noundef %123, float noundef %132)
  %134 = fptoui float %133 to i8
  %135 = load ptr, ptr %27, align 8, !tbaa !96
  %136 = load i32, ptr %22, align 4, !tbaa !32
  %137 = sext i32 %136 to i64
  %138 = getelementptr inbounds i8, ptr %135, i64 %137
  store i8 %134, ptr %138, align 1, !tbaa !97
  call void @llvm.lifetime.end.p0(i64 8, ptr %27) #10
  call void @llvm.lifetime.end.p0(i64 8, ptr %26) #10
  call void @llvm.lifetime.end.p0(i64 8, ptr %25) #10
  br label %139

139:                                              ; preds = %63
  %140 = load i32, ptr %24, align 4, !tbaa !32
  %141 = add nsw i32 %140, 1
  store i32 %141, ptr %24, align 4, !tbaa !32
  br label %56, !llvm.loop !408

142:                                              ; preds = %62
  call void @llvm.lifetime.end.p0(i64 4, ptr %23) #10
  br label %143

143:                                              ; preds = %142
  %144 = load i32, ptr %22, align 4, !tbaa !32
  %145 = add nsw i32 %144, 1
  store i32 %145, ptr %22, align 4, !tbaa !32
  br label %48, !llvm.loop !409

146:                                              ; preds = %52
  call void @llvm.lifetime.end.p0(i64 4, ptr %21) #10
  br label %147

147:                                              ; preds = %146
  %148 = load i32, ptr %19, align 4, !tbaa !32
  %149 = add nsw i32 %148, 1
  store i32 %149, ptr %19, align 4, !tbaa !32
  br label %35, !llvm.loop !410

150:                                              ; preds = %39
  call void @llvm.lifetime.end.p0(i64 4, ptr %18) #10
  call void @llvm.lifetime.end.p0(i64 8, ptr %17) #10
  ret void
}