; Function Attrs: nofree norecurse nosync nounwind memory(readwrite, inaccessiblemem: none) uwtable
define internal void @vdwind8_transition(ptr noundef readonly captures(none) %0, ptr noundef readonly captures(none) %1, ptr noundef readonly captures(none) %2, ptr noundef readonly captures(none) %3, float noundef %4, i32 noundef %5, i32 noundef %6, i32 %7) #6 {
  %9 = getelementptr inbounds nuw i8, ptr %3, i64 104
  %10 = load i32, ptr %9, align 8, !tbaa !85
  %11 = icmp slt i32 %5, %6
  br i1 %11, label %.lr.ph48, label %._crit_edge49

.lr.ph48:                                         ; preds = %8
  %12 = getelementptr inbounds nuw i8, ptr %0, i64 72
  %13 = load ptr, ptr %12, align 8, !tbaa !4
  %14 = getelementptr inbounds nuw i8, ptr %3, i64 108
  %15 = icmp sgt i32 %10, 0
  %16 = getelementptr inbounds nuw i8, ptr %13, i64 40
  %17 = getelementptr inbounds nuw i8, ptr %1, i64 64
  %18 = getelementptr inbounds nuw i8, ptr %2, i64 64
  %19 = getelementptr inbounds nuw i8, ptr %3, i64 64
  %20 = fadd nsz float %4, -1.000000e+00
  br i1 %15, label %.lr.ph48.split.us, label %._crit_edge49

.lr.ph48.split.us:                                ; preds = %.lr.ph48
  %21 = load i32, ptr %16, align 8, !tbaa !77
  %22 = icmp sgt i32 %21, 0
  br i1 %22, label %.lr.ph43.us.preheader, label %._crit_edge49

.lr.ph43.us.preheader:                            ; preds = %.lr.ph48.split.us
  %wide.trip.count = zext nneg i32 %10 to i64
  br label %.lr.ph43.us

.lr.ph43.us:                                      ; preds = %.lr.ph43.us.preheader, %._crit_edge44.us
  %23 = phi i32 [ %86, %._crit_edge44.us ], [ %21, %.lr.ph43.us.preheader ]
  %24 = phi i32 [ %87, %._crit_edge44.us ], [ %21, %.lr.ph43.us.preheader ]
  %.045.us = phi i32 [ %88, %._crit_edge44.us ], [ %5, %.lr.ph43.us.preheader ]
  %25 = sitofp i32 %.045.us to float
  %26 = load i32, ptr %14, align 4, !tbaa !88
  %27 = sitofp i32 %26 to float
  %28 = fdiv nsz float %25, %27
  %29 = icmp sgt i32 %24, 0
  br i1 %29, label %.lr.ph43.split.us52, label %._crit_edge44.us

.lr.ph43.split.us52:                              ; preds = %.lr.ph43.us, %._crit_edge.us
  %30 = phi i32 [ %32, %._crit_edge.us ], [ %23, %.lr.ph43.us ]
  %indvars.iv57 = phi i64 [ %indvars.iv.next58, %._crit_edge.us ], [ 0, %.lr.ph43.us ]
  %31 = icmp sgt i32 %30, 0
  br i1 %31, label %.lr.ph.us, label %._crit_edge.us

._crit_edge.us:                                   ; preds = %33, %.lr.ph43.split.us52
  %32 = phi i32 [ %30, %.lr.ph43.split.us52 ], [ %65, %33 ]
  %indvars.iv.next58 = add nuw nsw i64 %indvars.iv57, 1
  %exitcond.not = icmp eq i64 %indvars.iv.next58, %wide.trip.count
  br i1 %exitcond.not, label %._crit_edge44.us, label %.lr.ph43.split.us52, !llvm.loop !400

33:                                               ; preds = %.lr.ph.us, %33
  %indvars.iv = phi i64 [ 0, %.lr.ph.us ], [ %indvars.iv.next, %33 ]
  %34 = getelementptr inbounds nuw [8 x ptr], ptr %1, i64 0, i64 %indvars.iv
  %35 = load ptr, ptr %34, align 8, !tbaa !89
  %36 = getelementptr inbounds nuw [8 x i32], ptr %17, i64 0, i64 %indvars.iv
  %37 = load i32, ptr %36, align 4, !tbaa !31
  %38 = mul nsw i32 %37, %.045.us
  %39 = sext i32 %38 to i64
  %40 = getelementptr inbounds i8, ptr %35, i64 %39
  %41 = getelementptr inbounds nuw [8 x ptr], ptr %2, i64 0, i64 %indvars.iv
  %42 = load ptr, ptr %41, align 8, !tbaa !89
  %43 = getelementptr inbounds nuw [8 x i32], ptr %18, i64 0, i64 %indvars.iv
  %44 = load i32, ptr %43, align 4, !tbaa !31
  %45 = mul nsw i32 %44, %.045.us
  %46 = sext i32 %45 to i64
  %47 = getelementptr inbounds i8, ptr %42, i64 %46
  %48 = getelementptr inbounds nuw [8 x ptr], ptr %3, i64 0, i64 %indvars.iv
  %49 = load ptr, ptr %48, align 8, !tbaa !89
  %50 = getelementptr inbounds nuw [8 x i32], ptr %19, i64 0, i64 %indvars.iv
  %51 = load i32, ptr %50, align 4, !tbaa !31
  %52 = mul nsw i32 %51, %.045.us
  %53 = sext i32 %52 to i64
  %54 = getelementptr inbounds i8, ptr %49, i64 %53
  %55 = getelementptr inbounds nuw i8, ptr %47, i64 %indvars.iv57
  %56 = load i8, ptr %55, align 1, !tbaa !90
  %57 = uitofp i8 %56 to float
  %58 = getelementptr inbounds nuw i8, ptr %40, i64 %indvars.iv57
  %59 = load i8, ptr %58, align 1, !tbaa !90
  %60 = uitofp i8 %59 to float
  %61 = fmul nsz float %85, %60
  %62 = tail call nsz noundef float @llvm.fmuladd.f32(float %57, float %84, float %61)
  %63 = fptoui float %62 to i8
  %64 = getelementptr inbounds nuw i8, ptr %54, i64 %indvars.iv57
  store i8 %63, ptr %64, align 1, !tbaa !90
  %indvars.iv.next = add nuw nsw i64 %indvars.iv, 1
  %65 = load i32, ptr %16, align 8, !tbaa !77
  %66 = sext i32 %65 to i64
  %67 = icmp slt i64 %indvars.iv.next, %66
  br i1 %67, label %33, label %._crit_edge.us, !llvm.loop !401

.lr.ph.us:                                        ; preds = %.lr.ph43.split.us52
  %68 = trunc nuw nsw i64 %indvars.iv57 to i32
  %69 = uitofp nneg i32 %68 to float
  %70 = fmul nsz float %69, 0x4029FAC720000000
  %71 = tail call nsz float @llvm.sin.f32(float %70)
  %72 = fmul nsz float %71, 0x40E55DD180000000
  %73 = tail call nsz float @llvm.floor.f32(float %72)
  %74 = fsub nsz float %72, %73
  %75 = fmul nsz float %74, 0x3FC99999A0000000
  %76 = tail call nsz float @llvm.fmuladd.f32(float %28, float 0x3FE99999A0000000, float %75)
  %77 = tail call nsz float @llvm.fmuladd.f32(float %20, float 0x3FF3333340000000, float %76)
  %78 = fdiv nsz float %77, 0xBFC99999A0000000
  %79 = fcmp nsz ogt float %78, 0.000000e+00
  %80 = select nsz i1 %79, float %78, float 0.000000e+00
  %81 = fcmp nsz ogt float %80, 1.000000e+00
  %..i.i.us = select nsz i1 %81, float 1.000000e+00, float %80
  %82 = fmul nsz float %..i.i.us, %..i.i.us
  %83 = tail call nsz float @llvm.fmuladd.f32(float %..i.i.us, float -2.000000e+00, float 3.000000e+00)
  %84 = fmul nsz float %82, %83
  %85 = fsub nsz float 1.000000e+00, %84
  br label %33

._crit_edge44.us:                                 ; preds = %._crit_edge.us, %.lr.ph43.us
  %86 = phi i32 [ %23, %.lr.ph43.us ], [ %32, %._crit_edge.us ]
  %87 = phi i32 [ %24, %.lr.ph43.us ], [ %32, %._crit_edge.us ]
  %88 = add nsw i32 %.045.us, 1
  %exitcond60.not = icmp eq i32 %88, %6
  br i1 %exitcond60.not, label %._crit_edge49, label %.lr.ph43.us, !llvm.loop !402

._crit_edge49:                                    ; preds = %._crit_edge44.us, %.lr.ph48.split.us, %.lr.ph48, %8
  ret void
}